ccopy_reg
_reconstructor
p0
(cgoogle.oauth2.credentials
Credentials
p1
c__builtin__
object
p2
Ntp3
Rp4
(dp5
S'_quota_project_id'
p6
NsS'_token_uri'
p7
Vhttps://oauth2.googleapis.com/token
p8
sS'_client_secret'
p9
VIL_MBvFKs0HUgkt1xQoJTQJ1
p10
sS'_id_token'
p11
NsS'token'
p12
Vya29.a0Adw1xeXmjJz7-evuP_i1Q3wbv_16btNo18vTQTVAdyHCUde5GK2zNDIytQbaDnkO0SBwpoy4Q2SceNyF5sf5JwXkmtCCxRl87shipMX4H7Zjkowv5KZVgsV4eBZZZeEMYYqxmEhS40pYAfaGwirBvlrk7RdpaKBhWdIj
p13
sS'_refresh_token'
p14
V1//0dxVnHDym8OV9CgYIARAAGA0SNwF-L9IrMoMz-N3eWkYpm2btiba8HXCNc2D3P86cjnKYZLRFR2K_KSv9JcKeEnHLFdmPSbBfau0
p15
sS'_scopes'
p16
(lp17
S'https://www.googleapis.com/auth/admin.directory.user'
p18
asS'_client_id'
p19
V663349878115-gk4617c3sjakn7c2e54qs3aif9pspspu.apps.googleusercontent.com
p20
sS'expiry'
p21
cdatetime
datetime
p22
(S'\x07\xe4\x03\x0e\x03\x021\n\x81\x96'
p23
tp24
Rp25
sb.